; Function Attrs: nofree norecurse nosync nounwind memory(readwrite, inaccessiblemem: none) uwtable
define void @If_ManPrepareMappingSeq(ptr noundef readonly captures(none) %0) local_unnamed_addr #0 {
  %2 = getelementptr inbounds nuw i8, ptr %0, i64 8
  %3 = load ptr, ptr %2, align 8, !tbaa !3
  %4 = getelementptr inbounds nuw i8, ptr %3, i64 248
  %5 = load i32, ptr %4, align 8, !tbaa !24
  %6 = icmp sgt i32 %5, 0
  br i1 %6, label %.lr.ph, label %._crit_edge

.lr.ph:                                           ; preds = %1
  %7 = getelementptr inbounds nuw i8, ptr %0, i64 32
  %8 = getelementptr i8, ptr %0, i64 76
  %9 = getelementptr inbounds nuw i8, ptr %0, i64 24
  %10 = getelementptr i8, ptr %0, i64 72
  br label %11

11:                                               ; preds = %.lr.ph, %11
  %12 = phi i32 [ %5, %.lr.ph ], [ %39, %11 ]
  %13 = phi ptr [ %3, %.lr.ph ], [ %37, %11 ]
  %.014 = phi i32 [ 0, %.lr.ph ], [ %36, %11 ]
  %14 = load ptr, ptr %7, align 8, !tbaa !28
  %.val.i = load i32, ptr %8, align 4, !tbaa !29
  %15 = getelementptr inbounds nuw i8, ptr %13, i64 252
  %16 = load i32, ptr %15, align 4, !tbaa !30
  %17 = add i32 %.val.i, %.014
  %18 = sub i32 %17, %16
  %19 = getelementptr i8, ptr %14, i64 8
  %.val3.i = load ptr, ptr %19, align 8, !tbaa !31
  %20 = sext i32 %18 to i64
  %21 = getelementptr inbounds ptr, ptr %.val3.i, i64 %20
  %22 = load ptr, ptr %21, align 8, !tbaa !33
  %23 = load ptr, ptr %9, align 8, !tbaa !34
  %.val3.i11 = load i32, ptr %10, align 8, !tbaa !29
  %24 = sub i32 %.014, %12
  %25 = add i32 %24, %.val3.i11
  %26 = getelementptr i8, ptr %23, i64 8
  %.val.i12 = load ptr, ptr %26, align 8, !tbaa !31
  %27 = sext i32 %25 to i64
  %28 = getelementptr inbounds ptr, ptr %.val.i12, i64 %27
  %29 = load ptr, ptr %28, align 8, !tbaa !33
  %30 = getelementptr i8, ptr %22, i64 24
  %.val = load ptr, ptr %30, align 8, !tbaa !35
  %31 = getelementptr inbounds nuw i8, ptr %29, i64 24
  store ptr %.val, ptr %31, align 8, !tbaa !35
  %.val10 = load i32, ptr %22, align 8
  %32 = and i32 %.val10, 16
  %33 = load i32, ptr %29, align 8
  %34 = and i32 %33, -17
  %35 = or disjoint i32 %34, %32
  store i32 %35, ptr %29, align 8
  %36 = add nuw nsw i32 %.014, 1
  %37 = load ptr, ptr %2, align 8, !tbaa !3
  %38 = getelementptr inbounds nuw i8, ptr %37, i64 248
  %39 = load i32, ptr %38, align 8, !tbaa !24
  %40 = icmp slt i32 %36, %39
  br i1 %40, label %11, label %._crit_edge, !llvm.loop !38

._crit_edge:                                      ; preds = %11, %1
  ret void
}